; Function Attrs: nounwind sspstrong uwtable
define dso_local noundef zeroext i1 @visit_type_BlockGraphInfo_members(ptr noundef %v, ptr noundef %obj, ptr noundef %errp) local_unnamed_addr #0 {
entry:
  %call = tail call zeroext i1 @visit_type_BlockNodeInfo_members(ptr noundef %v, ptr noundef %obj, ptr noundef %errp)
  br i1 %call, label %if.end, label %return

if.end:                                           ; preds = %entry
  %children = getelementptr inbounds nuw i8, ptr %obj, i64 112
  %call1 = tail call zeroext i1 @visit_type_BlockChildInfoList(ptr noundef %v, ptr noundef nonnull @.str.43, ptr noundef nonnull %children, ptr noundef %errp)
  br label %return

return:                                           ; preds = %if.end, %entry
  %retval.0 = phi i1 [ false, %entry ], [ %call1, %if.end ]
  ret i1 %retval.0
}